target datalayout = "e-m:e-p270:32:32-p271:32:32-p272:64:64-i64:64-i128:128-f80:128-n8:16:32:64-S128"
target triple = "x86_64-pc-linux-gnu"

%struct.H5FL_reg_head_t = type { i8, i32, i32, ptr, i64, ptr }
%struct.H5MF_free_section_t = type { %struct.H5FS_section_info_t }
%struct.H5FS_section_info_t = type { i64, i64, i32, i32 }
%struct.H5MF_sect_ud_t = type { ptr, i32, i8, i8, i32, ptr }

@H5_H5MF_free_section_t_reg_free_list = internal global %struct.H5FL_reg_head_t { i8 0, i32 0, i32 0, ptr @.str.2, i64 24, ptr null }, align 8
@.str = private unnamed_addr constant [105 x i8] c"generated/home/dtcxzyw/WorkSpace/Projects/compilers/llvm-opt-benchmark/bench/hdf5/hdf5/src/H5MFsection.c\00", align 1
@H5E_RESOURCE_g = external global i64, align 8
@H5E_CANTRELEASE_g = external global i64, align 8
@H5E_CANTMERGE_g = external global i64, align 8
@__func__.H5MF__sect_simple_shrink = private unnamed_addr constant [25 x i8] c"H5MF__sect_simple_shrink\00", align 1
@H5E_CANTFREE_g = external global i64, align 8
@.str.7 = private unnamed_addr constant [27 x i8] c"driver free request failed\00", align 1
@.str.8 = private unnamed_addr constant [51 x i8] c"can't absorb section into aggregator or vice versa\00", align 1
@.str.9 = private unnamed_addr constant [31 x i8] c"can't free simple section node\00", align 1

; Function Attrs: nounwind uwtable
define i32 @H5MF__sect_free(ptr noundef %0) #0 {
  %2 = alloca ptr, align 8
  %3 = alloca ptr, align 8
  store ptr %0, ptr %2, align 8
  %4 = load ptr, ptr %2, align 8
  store ptr %4, ptr %3, align 8
  %5 = load ptr, ptr %3, align 8
  %6 = call ptr @H5FL_reg_free(ptr noundef @H5_H5MF_free_section_t_reg_free_list, ptr noundef %5)
  store ptr %6, ptr %3, align 8
  ret i32 0
}

; Function Attrs: nounwind uwtable
define internal i32 @H5MF__sect_simple_shrink(ptr noundef %0, ptr noundef %1) #0 {
  %3 = alloca ptr, align 8
  %4 = alloca ptr, align 8
  %5 = alloca ptr, align 8
  %6 = alloca ptr, align 8
  %7 = alloca i32, align 4
  %8 = alloca i8, align 1
  store ptr %0, ptr %3, align 8
  store ptr %1, ptr %4, align 8
  %9 = load ptr, ptr %3, align 8
  store ptr %9, ptr %5, align 8
  %10 = load ptr, ptr %4, align 8
  store ptr %10, ptr %6, align 8
  store i32 0, ptr %7, align 4
  store i8 0, ptr %8, align 1
  %11 = load ptr, ptr %6, align 8
  %12 = getelementptr inbounds %struct.H5MF_sect_ud_t, ptr %11, i32 0, i32 4
  %13 = load i32, ptr %12, align 8
  %14 = icmp eq i32 0, %13
  br i1 %14, label %15, label %50

15:                                               ; preds = %2
  %16 = load ptr, ptr %6, align 8
  %17 = getelementptr inbounds %struct.H5MF_sect_ud_t, ptr %16, i32 0, i32 0
  %18 = load ptr, ptr %17, align 8
  %19 = load ptr, ptr %6, align 8
  %20 = getelementptr inbounds %struct.H5MF_sect_ud_t, ptr %19, i32 0, i32 1
  %21 = load i32, ptr %20, align 8
  %22 = load ptr, ptr %5, align 8
  %23 = load ptr, ptr %22, align 8
  %24 = getelementptr inbounds %struct.H5MF_free_section_t, ptr %23, i32 0, i32 0
  %25 = getelementptr inbounds %struct.H5FS_section_info_t, ptr %24, i32 0, i32 0
  %26 = load i64, ptr %25, align 8
  %27 = load ptr, ptr %5, align 8
  %28 = load ptr, ptr %27, align 8
  %29 = getelementptr inbounds %struct.H5MF_free_section_t, ptr %28, i32 0, i32 0
  %30 = getelementptr inbounds %struct.H5FS_section_info_t, ptr %29, i32 0, i32 1
  %31 = load i64, ptr %30, align 8
  %32 = call i32 @H5F__free(ptr noundef %18, i32 noundef %21, i64 noundef %26, i64 noundef %31)
  %33 = icmp slt i32 %32, 0
  br i1 %33, label %34, label %49

34:                                               ; preds = %15
  br label %35

35:                                               ; preds = %34
  br label %36

36:                                               ; preds = %35
  br label %37

37:                                               ; preds = %36
  %38 = load i64, ptr @H5E_RESOURCE_g, align 8
  %39 = load i64, ptr @H5E_CANTFREE_g, align 8
  %40 = call i32 (ptr, ptr, i32, i64, i64, ptr, ...) @H5E_printf_stack(ptr noundef @.str, ptr noundef @__func__.H5MF__sect_simple_shrink, i32 noundef 545, i64 noundef %38, i64 noundef %39, ptr noundef @.str.7)
  br label %41

41:                                               ; preds = %37
  store i8 1, ptr %8, align 1
  %42 = load i8, ptr %8, align 1
  %43 = trunc i8 %42 to i1
  %44 = zext i1 %43 to i8
  store i8 %44, ptr %8, align 1
  br label %45

45:                                               ; preds = %41
  br label %46

46:                                               ; preds = %45
  store i32 -1, ptr %7, align 4
  br label %109

47:                                               ; No predecessors!
  br label %48

48:                                               ; preds = %47
  br label %49

49:                                               ; preds = %48, %15
  br label %81

50:                                               ; preds = %2
  %51 = load ptr, ptr %6, align 8
  %52 = getelementptr inbounds %struct.H5MF_sect_ud_t, ptr %51, i32 0, i32 0
  %53 = load ptr, ptr %52, align 8
  %54 = load ptr, ptr %6, align 8
  %55 = getelementptr inbounds %struct.H5MF_sect_ud_t, ptr %54, i32 0, i32 5
  %56 = load ptr, ptr %55, align 8
  %57 = load ptr, ptr %5, align 8
  %58 = load ptr, ptr %57, align 8
  %59 = load ptr, ptr %6, align 8
  %60 = getelementptr inbounds %struct.H5MF_sect_ud_t, ptr %59, i32 0, i32 2
  %61 = load i8, ptr %60, align 4
  %62 = trunc i8 %61 to i1
  %63 = call i32 @H5MF__aggr_absorb(ptr noundef %53, ptr noundef %56, ptr noundef %58, i1 noundef zeroext %62)
  %64 = icmp slt i32 %63, 0
  br i1 %64, label %65, label %80

65:                                               ; preds = %50
  br label %66

66:                                               ; preds = %65
  br label %67

67:                                               ; preds = %66
  br label %68

68:                                               ; preds = %67
  %69 = load i64, ptr @H5E_RESOURCE_g, align 8
  %70 = load i64, ptr @H5E_CANTMERGE_g, align 8
  %71 = call i32 (ptr, ptr, i32, i64, i64, ptr, ...) @H5E_printf_stack(ptr noundef @.str, ptr noundef @__func__.H5MF__sect_simple_shrink, i32 noundef 554, i64 noundef %69, i64 noundef %70, ptr noundef @.str.8)
  br label %72

72:                                               ; preds = %68
  store i8 1, ptr %8, align 1
  %73 = load i8, ptr %8, align 1
  %74 = trunc i8 %73 to i1
  %75 = zext i1 %74 to i8
  store i8 %75, ptr %8, align 1
  br label %76

76:                                               ; preds = %72
  br label %77

77:                                               ; preds = %76
  store i32 -1, ptr %7, align 4
  br label %109

78:                                               ; No predecessors!
  br label %79

79:                                               ; preds = %78
  br label %80

80:                                               ; preds = %79, %50
  br label %81

81:                                               ; preds = %80, %49
  %82 = load ptr, ptr %6, align 8
  %83 = getelementptr inbounds %struct.H5MF_sect_ud_t, ptr %82, i32 0, i32 4
  %84 = load i32, ptr %83, align 8
  %85 = icmp ne i32 %84, 2
  br i1 %85, label %86, label %108

86:                                               ; preds = %81
  %87 = load ptr, ptr %5, align 8
  %88 = load ptr, ptr %87, align 8
  %89 = call i32 @H5MF__sect_free(ptr noundef %88)
  %90 = icmp slt i32 %89, 0
  br i1 %90, label %91, label %106

91:                                               ; preds = %86
  br label %92

92:                                               ; preds = %91
  br label %93

93:                                               ; preds = %92
  br label %94

94:                                               ; preds = %93
  %95 = load i64, ptr @H5E_RESOURCE_g, align 8
  %96 = load i64, ptr @H5E_CANTRELEASE_g, align 8
  %97 = call i32 (ptr, ptr, i32, i64, i64, ptr, ...) @H5E_printf_stack(ptr noundef @.str, ptr noundef @__func__.H5MF__sect_simple_shrink, i32 noundef 561, i64 noundef %95, i64 noundef %96, ptr noundef @.str.9)
  br label %98

98:                                               ; preds = %94
  store i8 1, ptr %8, align 1
  %99 = load i8, ptr %8, align 1
  %100 = trunc i8 %99 to i1
  %101 = zext i1 %100 to i8
  store i8 %101, ptr %8, align 1
  br label %102

102:                                              ; preds = %98
  br label %103

103:                                              ; preds = %102
  store i32 -1, ptr %7, align 4
  br label %109

104:                                              ; No predecessors!
  br label %105

105:                                              ; preds = %104
  br label %106

106:                                              ; preds = %105, %86
  %107 = load ptr, ptr %5, align 8
  store ptr null, ptr %107, align 8
  br label %108

108:                                              ; preds = %106, %81
  br label %109

109:                                              ; preds = %108, %103, %77, %46
  %110 = load i32, ptr %7, align 4
  ret i32 %110
}