; Function Attrs: nounwind uwtable
define internal range(i32 -1, 1) i32 @H5MF__sect_simple_shrink(ptr nocapture noundef %0, ptr nocapture noundef readonly %1) #0 {
  %3 = getelementptr inbounds i8, ptr %1, i64 16
  %4 = load i32, ptr %3, align 8
  %5 = icmp eq i32 %4, 0
  %6 = load ptr, ptr %1, align 8
  %7 = load ptr, ptr %0, align 8
  br i1 %5, label %8, label %20

8:                                                ; preds = %2
  %9 = getelementptr inbounds i8, ptr %1, i64 8
  %10 = load i32, ptr %9, align 8
  %11 = load i64, ptr %7, align 8
  %12 = getelementptr inbounds i8, ptr %7, i64 8
  %13 = load i64, ptr %12, align 8
  %14 = tail call i32 @H5F__free(ptr noundef %6, i32 noundef %10, i64 noundef %11, i64 noundef %13) #5
  %15 = icmp slt i32 %14, 0
  br i1 %15, label %16, label %32

16:                                               ; preds = %8
  %17 = load i64, ptr @H5E_RESOURCE_g, align 8
  %18 = load i64, ptr @H5E_CANTFREE_g, align 8
  %19 = tail call i32 (ptr, ptr, i32, i64, i64, ptr, ...) @H5E_printf_stack(ptr noundef nonnull @.str, ptr noundef nonnull @__func__.H5MF__sect_simple_shrink, i32 noundef 545, i64 noundef %17, i64 noundef %18, ptr noundef nonnull @.str.7) #5
  br label %37

20:                                               ; preds = %2
  %21 = getelementptr inbounds i8, ptr %1, i64 24
  %22 = load ptr, ptr %21, align 8
  %23 = getelementptr inbounds i8, ptr %1, i64 12
  %24 = load i8, ptr %23, align 4
  %25 = trunc i8 %24 to i1
  %26 = tail call i32 @H5MF__aggr_absorb(ptr noundef %6, ptr noundef %22, ptr noundef %7, i1 noundef zeroext %25) #5
  %27 = icmp slt i32 %26, 0
  br i1 %27, label %28, label %32

28:                                               ; preds = %20
  %29 = load i64, ptr @H5E_RESOURCE_g, align 8
  %30 = load i64, ptr @H5E_CANTMERGE_g, align 8
  %31 = tail call i32 (ptr, ptr, i32, i64, i64, ptr, ...) @H5E_printf_stack(ptr noundef nonnull @.str, ptr noundef nonnull @__func__.H5MF__sect_simple_shrink, i32 noundef 554, i64 noundef %29, i64 noundef %30, ptr noundef nonnull @.str.8) #5
  br label %37

32:                                               ; preds = %20, %8
  %33 = load i32, ptr %3, align 8
  %.not = icmp eq i32 %33, 2
  br i1 %.not, label %37, label %34

34:                                               ; preds = %32
  %35 = load ptr, ptr %0, align 8
  %36 = tail call ptr @H5FL_reg_free(ptr noundef nonnull @H5_H5MF_free_section_t_reg_free_list, ptr noundef %35) #5
  store ptr null, ptr %0, align 8
  br label %37

37:                                               ; preds = %32, %34, %28, %16
  %.0 = phi i32 [ -1, %16 ], [ 0, %34 ], [ 0, %32 ], [ -1, %28 ]
  ret i32 %.0
}